target datalayout = "e-m:e-p270:32:32-p271:32:32-p272:64:64-i64:64-i128:128-f80:128-n8:16:32:64-S128"
target triple = "x86_64-pc-linux-gnu"

@myTempNamespace = internal global i32 0, align 4
@myTempToastNamespace = internal global i32 0, align 4

; Function Attrs: nounwind uwtable
define dso_local zeroext i1 @isTempOrTempToastNamespace(i32 noundef %0) #0 {
  %2 = alloca i1, align 1
  %3 = alloca i32, align 4
  store i32 %0, ptr %3, align 4
  %4 = load i32, ptr @myTempNamespace, align 4
  %5 = icmp ne i32 %4, 0
  br i1 %5, label %6, label %15

6:                                                ; preds = %1
  %7 = load i32, ptr @myTempNamespace, align 4
  %8 = load i32, ptr %3, align 4
  %9 = icmp eq i32 %7, %8
  br i1 %9, label %14, label %10

10:                                               ; preds = %6
  %11 = load i32, ptr @myTempToastNamespace, align 4
  %12 = load i32, ptr %3, align 4
  %13 = icmp eq i32 %11, %12
  br i1 %13, label %14, label %15

14:                                               ; preds = %10, %6
  store i1 true, ptr %2, align 1
  br label %16

15:                                               ; preds = %10, %1
  store i1 false, ptr %2, align 1
  br label %16

16:                                               ; preds = %15, %14
  %17 = load i1, ptr %2, align 1
  ret i1 %17
}