; Function Attrs: mustprogress nofree norecurse nosync nounwind willreturn memory(read, argmem: none, inaccessiblemem: none) uwtable
define dso_local noundef zeroext i1 @isTempOrTempToastNamespace(i32 noundef %0) local_unnamed_addr #5 {
  %2 = load i32, ptr @myTempNamespace, align 4
  %.not = icmp eq i32 %2, 0
  br i1 %.not, label %7, label %3

3:                                                ; preds = %1
  %4 = icmp eq i32 %2, %0
  %5 = load i32, ptr @myTempToastNamespace, align 4
  %6 = icmp eq i32 %5, %0
  %or.cond = select i1 %4, i1 true, i1 %6
  br i1 %or.cond, label %8, label %7

7:                                                ; preds = %3, %1
  br label %8

8:                                                ; preds = %3, %7
  %.0 = phi i1 [ false, %7 ], [ true, %3 ]
  ret i1 %.0
}